	.cpu cortex-m4
	.arch armv7e-m
	.fpu softvfp
	.eabi_attribute 20, 1
	.eabi_attribute 21, 1
	.eabi_attribute 23, 3
	.eabi_attribute 24, 1
	.eabi_attribute 25, 1
	.eabi_attribute 26, 1
	.eabi_attribute 30, 1
	.eabi_attribute 34, 1
	.eabi_attribute 18, 4
	.file	"blinky.c"
	.text
.Ltext0:
	.cfi_sections	.debug_frame
	.file 1 "blinky.c"
	.align	1
	.global	memcpy
	.syntax unified
	.thumb
	.thumb_func
	.type	memcpy, %function
memcpy:
.LVL0:
.LFB7:
	.loc 1 29 1 view -0
	.cfi_startproc
	@ args = 0, pretend = 0, frame = 0
	@ frame_needed = 0, uses_anonymous_args = 0
	@ link register save eliminated.
	.loc 1 30 5 view .LVU1
	.loc 1 31 5 view .LVU2
	.loc 1 32 5 view .LVU3
	.loc 1 32 16 view .LVU4
	.loc 1 32 16 is_stmt 0 view .LVU5
	mov	ip, r2
	cbz	r2, .L2
	subs	r3, r0, #1
	add	ip, ip, r1
.LVL1:
.L3:
	.loc 1 32 21 is_stmt 1 discriminator 2 view .LVU6
	.loc 1 32 28 is_stmt 0 discriminator 2 view .LVU7
	ldrb	r2, [r1], #1	@ zero_extendqisi2
.LVL2:
	.loc 1 32 26 discriminator 2 view .LVU8
	strb	r2, [r3, #1]!
	.loc 1 32 16 is_stmt 1 discriminator 2 view .LVU9
	.loc 1 32 16 is_stmt 0 discriminator 2 view .LVU10
	cmp	r1, ip
	bne	.L3
.LVL3:
.L2:
	.loc 1 33 5 is_stmt 1 view .LVU11
	.loc 1 34 1 is_stmt 0 view .LVU12
	bx	lr
	.cfi_endproc
.LFE7:
	.size	memcpy, .-memcpy
	.align	1
	.global	memset
	.syntax unified
	.thumb
	.thumb_func
	.type	memset, %function
memset:
.LVL4:
.LFB8:
	.loc 1 38 1 is_stmt 1 view -0
	.cfi_startproc
	@ args = 0, pretend = 0, frame = 0
	@ frame_needed = 0, uses_anonymous_args = 0
	@ link register save eliminated.
	.loc 1 39 5 view .LVU14
	.loc 1 40 5 view .LVU15
	.loc 1 40 16 view .LVU16
	.loc 1 40 16 is_stmt 0 view .LVU17
	cbz	r2, .L6
	adds	r2, r0, r2
.LVL5:
	.loc 1 39 20 view .LVU18
	mov	r3, r0
.LVL6:
.L7:
	.loc 1 40 21 is_stmt 1 discriminator 2 view .LVU19
	.loc 1 40 26 is_stmt 0 discriminator 2 view .LVU20
	strb	r1, [r3], #1
.LVL7:
	.loc 1 40 16 is_stmt 1 discriminator 2 view .LVU21
	.loc 1 40 16 is_stmt 0 discriminator 2 view .LVU22
	cmp	r2, r3
	bne	.L7
.LVL8:
.L6:
	.loc 1 41 5 is_stmt 1 view .LVU23
	.loc 1 42 1 is_stmt 0 view .LVU24
	bx	lr
	.cfi_endproc
.LFE8:
	.size	memset, .-memset
	.align	1
	.global	delay_loop
	.syntax unified
	.thumb
	.thumb_func
	.type	delay_loop, %function
delay_loop:
.LVL9:
.LFB10:
	.loc 1 79 1 is_stmt 1 view -0
	.cfi_startproc
	@ args = 0, pretend = 0, frame = 0
	@ frame_needed = 0, uses_anonymous_args = 0
	@ link register save eliminated.
	.loc 1 82 5 view .LVU26
	.loc 1 83 5 view .LVU27
	.loc 1 83 14 view .LVU28
	lsls	r0, r0, #4
.LVL10:
	.loc 1 83 14 is_stmt 0 view .LVU29
	beq	.L9
.L11:
	.loc 1 85 9 is_stmt 1 view .LVU30
	.syntax unified
@ 85 "blinky.c" 1
	nop
@ 0 "" 2
	.loc 1 86 9 view .LVU31
.LVL11:
	.loc 1 83 14 view .LVU32
	.thumb
	.syntax unified
	subs	r0, r0, #1
.LVL12:
	.loc 1 83 14 is_stmt 0 view .LVU33
	bne	.L11
.L9:
	.loc 1 88 1 view .LVU34
	bx	lr
	.cfi_endproc
.LFE10:
	.size	delay_loop, .-delay_loop
	.align	1
	.global	spin
	.syntax unified
	.thumb
	.thumb_func
	.type	spin, %function
spin:
.LFB11:
	.loc 1 92 1 is_stmt 1 view -0
	.cfi_startproc
	@ args = 0, pretend = 0, frame = 0
	@ frame_needed = 0, uses_anonymous_args = 0
	push	{r4, r5, r6, r7, r8, lr}
	.cfi_def_cfa_offset 24
	.cfi_offset 4, -24
	.cfi_offset 5, -20
	.cfi_offset 6, -16
	.cfi_offset 7, -12
	.cfi_offset 8, -8
	.cfi_offset 14, -4
	.loc 1 98 5 view .LVU36
	.loc 1 100 5 view .LVU37
	.loc 1 106 5 view .LVU38
	.syntax unified
@ 106 "blinky.c" 1
	cpsid i
@ 0 "" 2
	.loc 1 108 5 view .LVU39
	.loc 1 108 15 is_stmt 0 view .LVU40
	.thumb
	.syntax unified
	mov	r3, #1342177280
	ldr	r2, .L19
	str	r2, [r3, #1300]
	.loc 1 109 5 is_stmt 1 view .LVU41
	.loc 1 109 15 is_stmt 0 view .LVU42
	movs	r2, #32
	str	r2, [r3, #2068]
	.loc 1 114 27 view .LVU43
	mov	r4, r3
	ldr	r8, .L19+4
	.loc 1 115 27 view .LVU44
	movs	r7, #0
	b	.L15
.LVL13:
.L18:
	.loc 1 119 9 is_stmt 1 view .LVU45
	.loc 1 119 19 is_stmt 0 view .LVU46
	str	r7, [r4, #1284]
	.loc 1 120 9 is_stmt 1 view .LVU47
	.loc 1 120 19 is_stmt 0 view .LVU48
	str	r7, [r4, #1284]
	.loc 1 121 9 is_stmt 1 view .LVU49
	ldr	r0, .L19+8
	bl	delay_loop
.LVL14:
	.loc 1 111 11 view .LVU50
.L15:
	.loc 1 111 5 view .LVU51
	.loc 1 112 9 view .LVU52
	.loc 1 112 24 view .LVU53
	.loc 1 92 1 is_stmt 0 view .LVU54
	movs	r6, #33
	.loc 1 116 17 view .LVU55
	movw	r5, #5000
.LVL15:
.L14:
	.loc 1 113 27 is_stmt 1 view .LVU56
	.loc 1 114 17 view .LVU57
	.loc 1 114 27 is_stmt 0 view .LVU58
	str	r8, [r4, #1284]
	.loc 1 115 17 is_stmt 1 view .LVU59
	.loc 1 115 27 is_stmt 0 view .LVU60
	str	r7, [r4, #2052]
	.loc 1 116 17 is_stmt 1 view .LVU61
	mov	r0, r5
	bl	delay_loop
.LVL16:
	.loc 1 113 34 view .LVU62
	.loc 1 113 27 view .LVU63
	.loc 1 114 17 view .LVU64
	.loc 1 114 27 is_stmt 0 view .LVU65
	mov	r3, #34816
	str	r3, [r4, #1284]
	.loc 1 115 17 is_stmt 1 view .LVU66
	.loc 1 115 27 is_stmt 0 view .LVU67
	movs	r3, #32
	str	r3, [r4, #2052]
	.loc 1 116 17 is_stmt 1 view .LVU68
	mov	r0, r5
	bl	delay_loop
.LVL17:
	.loc 1 113 34 view .LVU69
	.loc 1 113 27 view .LVU70
	.loc 1 114 17 view .LVU71
	.loc 1 114 27 is_stmt 0 view .LVU72
	ldr	r3, .L19+12
	str	r3, [r4, #1284]
	.loc 1 115 17 is_stmt 1 view .LVU73
	.loc 1 115 27 is_stmt 0 view .LVU74
	str	r7, [r4, #2052]
	.loc 1 116 17 is_stmt 1 view .LVU75
	mov	r0, r5
	bl	delay_loop
.LVL18:
	.loc 1 113 34 view .LVU76
	.loc 1 113 27 view .LVU77
	.loc 1 112 30 view .LVU78
	.loc 1 112 24 view .LVU79
	subs	r6, r6, #1
.LVL19:
	.loc 1 112 24 is_stmt 0 view .LVU80
	bne	.L14
	b	.L18
.L20:
	.align	2
.L19:
	.word	-781678592
	.word	-803209216
	.word	100000
	.word	-804782080
	.cfi_endproc
.LFE11:
	.size	spin, .-spin
	.weak	default_handler
	.thumb_set default_handler,spin
	.align	1
	.global	init
	.syntax unified
	.thumb
	.thumb_func
	.type	init, %function
init:
.LFB5:
	.loc 1 11 1 is_stmt 1 view -0
	.cfi_startproc
	@ Volatile: function does not return.
	@ args = 0, pretend = 0, frame = 0
	@ frame_needed = 0, uses_anonymous_args = 0
	push	{r3, lr}
	.cfi_def_cfa_offset 8
	.cfi_offset 3, -8
	.cfi_offset 14, -4
	.loc 1 12 5 view .LVU82
	bl	__reset
.LVL20:
	.loc 1 13 5 view .LVU83
	bl	spin
.LVL21:
	.cfi_endproc
.LFE5:
	.size	init, .-init
	.align	1
	.global	default_start
	.syntax unified
	.thumb
	.thumb_func
	.type	default_start, %function
default_start:
.LFB6:
	.loc 1 17 1 view -0
	.cfi_startproc
	@ Volatile: function does not return.
	@ args = 0, pretend = 0, frame = 0
	@ frame_needed = 0, uses_anonymous_args = 0
	push	{r3, lr}
	.cfi_def_cfa_offset 8
	.cfi_offset 3, -8
	.cfi_offset 14, -4
	.loc 1 18 5 view .LVU85
	bl	init
.LVL22:
	.cfi_endproc
.LFE6:
	.size	default_start, .-default_start
	.weak	__start
	.thumb_set __start,default_start
	.align	1
	.global	__reset
	.syntax unified
	.thumb
	.thumb_func
	.type	__reset, %function
__reset:
.LFB9:
	.loc 1 58 1 view -0
	.cfi_startproc
	@ args = 0, pretend = 0, frame = 0
	@ frame_needed = 0, uses_anonymous_args = 0
	push	{r3, r4, r5, r6, r7, r8, r9, lr}
	.cfi_def_cfa_offset 32
	.cfi_offset 3, -32
	.cfi_offset 4, -28
	.cfi_offset 5, -24
	.cfi_offset 6, -20
	.cfi_offset 7, -16
	.cfi_offset 8, -12
	.cfi_offset 9, -8
	.cfi_offset 14, -4
	.loc 1 60 5 view .LVU87
	.loc 1 60 24 is_stmt 0 view .LVU88
	mov	r3, #1073741824
	movs	r2, #0
	str	r2, [r3, #256]
	.loc 1 61 5 is_stmt 1 view .LVU89
	.loc 1 61 22 is_stmt 0 view .LVU90
	movs	r2, #1
	str	r2, [r3]
	.loc 1 62 5 is_stmt 1 view .LVU91
	.loc 1 62 14 is_stmt 0 view .LVU92
	mov	r2, r3
.L26:
	.loc 1 62 36 is_stmt 1 discriminator 1 view .LVU93
	.loc 1 62 12 discriminator 1 view .LVU94
	.loc 1 62 14 is_stmt 0 discriminator 1 view .LVU95
	ldr	r3, [r2, #256]
	.loc 1 62 12 discriminator 1 view .LVU96
	cmp	r3, #0
	beq	.L26
	.loc 1 65 5 is_stmt 1 view .LVU97
	ldr	r2, .L29
	ldr	r3, [r2, #1344]
	orr	r3, r3, #1
	str	r3, [r2, #1344]
	.loc 1 68 5 view .LVU98
.LVL23:
	.loc 1 69 5 view .LVU99
	.loc 1 69 9 is_stmt 0 view .LVU100
	ldr	r8, .L29+4
	ldr	r6, .L29+8
	sub	r6, r6, r8
.LVL24:
	.loc 1 70 5 is_stmt 1 view .LVU101
	.loc 1 70 9 is_stmt 0 view .LVU102
	ldr	r7, .L29+12
	ldr	r5, .L29+16
	subs	r5, r5, r7
.LVL25:
	.loc 1 71 5 is_stmt 1 view .LVU103
	.loc 1 68 9 is_stmt 0 view .LVU104
	ldr	r0, .L29+20
	ldr	r4, .L29+24
	subs	r4, r4, r0
.LVL26:
	.loc 1 71 5 view .LVU105
	ldr	r9, .L29+28
	mov	r2, r4
	mov	r1, r9
	bl	memcpy
.LVL27:
	.loc 1 72 5 is_stmt 1 view .LVU106
	mov	r2, r6
	add	r1, r9, r4
	mov	r0, r8
	bl	memcpy
.LVL28:
	.loc 1 73 5 view .LVU107
	mov	r2, r5
	movs	r1, #0
	mov	r0, r7
	bl	memset
.LVL29:
	.loc 1 75 5 view .LVU108
	bl	__start
.LVL30:
	.loc 1 76 1 is_stmt 0 view .LVU109
	pop	{r3, r4, r5, r6, r7, r8, r9, pc}
.LVL31:
.L30:
	.loc 1 76 1 view .LVU110
	.align	2
.L29:
	.word	1073864704
	.word	__data_start
	.word	__data_end
	.word	__bss_start
	.word	__bss_end
	.word	__xram_start
	.word	__xram_end
	.word	__etext
	.cfi_endproc
.LFE9:
	.size	__reset, .-__reset
	.global	__vector_table
	.global	gpio_base
	.section	.rodata
	.align	2
	.type	gpio_base, %object
	.size	gpio_base, 8
gpio_base:
	.word	1342178560
	.word	1342179328
	.section	.vector_table,"aw"
	.align	2
	.type	__vector_table, %object
	.size	__vector_table, 320
__vector_table:
	.word	__stack
	.word	__reset
	.word	default_handler
	.word	default_handler
	.word	default_handler
	.word	default_handler
	.word	default_handler
	.word	0
	.word	0
	.word	0
	.word	0
	.word	0
	.word	0
	.word	0
	.word	0
	.word	0
	.word	0
	.word	0
	.word	0
	.word	0
	.word	0
	.word	0
	.word	0
	.word	0
	.word	0
	.word	0
	.word	0
	.word	0
	.word	0
	.word	0
	.word	0
	.word	0
	.word	0
	.word	0
	.word	0
	.word	0
	.word	0
	.word	0
	.word	0
	.word	0
	.word	0
	.word	0
	.word	0
	.word	0
	.word	0
	.word	0
	.word	0
	.word	0
	.word	0
	.word	0
	.word	0
	.word	0
	.word	0
	.word	0
	.word	0
	.word	0
	.word	0
	.word	0
	.word	0
	.word	0
	.word	0
	.word	0
	.word	0
	.word	0
	.word	0
	.word	0
	.word	0
	.word	0
	.word	0
	.word	0
	.word	0
	.word	0
	.word	0
	.word	0
	.word	0
	.word	0
	.word	0
	.word	0
	.word	0
	.word	0
	.text
.Letext0:
	.file 2 "hardware.h"